target datalayout = "e-m:e-p270:32:32-p271:32:32-p272:64:64-i64:64-i128:128-f80:128-n8:16:32:64-S128"
target triple = "x86_64-pc-linux-gnu"

%struct.s_mmfile = type { ptr, i64 }
%struct.s_xdemitconf = type { i64, i64, i64, ptr, ptr, ptr }

; Function Attrs: nounwind uwtable
define internal void @trim_common_tail(ptr noundef %0, ptr noundef %1) #0 {
  %3 = alloca ptr, align 8
  %4 = alloca ptr, align 8
  %5 = alloca i32, align 4
  %6 = alloca i64, align 8
  %7 = alloca i64, align 8
  %8 = alloca ptr, align 8
  %9 = alloca ptr, align 8
  %10 = alloca i64, align 8
  store ptr %0, ptr %3, align 8, !tbaa !4
  store ptr %1, ptr %4, align 8, !tbaa !4
  call void @llvm.lifetime.start.p0(i64 4, ptr %5) #9
  store i32 1024, ptr %5, align 4, !tbaa !25
  call void @llvm.lifetime.start.p0(i64 8, ptr %6) #9
  store i64 0, ptr %6, align 8, !tbaa !18
  call void @llvm.lifetime.start.p0(i64 8, ptr %7) #9
  store i64 0, ptr %7, align 8, !tbaa !18
  call void @llvm.lifetime.start.p0(i64 8, ptr %8) #9
  %11 = load ptr, ptr %3, align 8, !tbaa !4
  %12 = getelementptr inbounds nuw %struct.s_mmfile, ptr %11, i32 0, i32 1
  %13 = load i64, ptr %12, align 8, !tbaa !20
  %14 = icmp ne i64 %13, 0
  br i1 %14, label %15, label %23

15:                                               ; preds = %2
  %16 = load ptr, ptr %3, align 8, !tbaa !4
  %17 = getelementptr inbounds nuw %struct.s_mmfile, ptr %16, i32 0, i32 0
  %18 = load ptr, ptr %17, align 8, !tbaa !27
  %19 = load ptr, ptr %3, align 8, !tbaa !4
  %20 = getelementptr inbounds nuw %struct.s_mmfile, ptr %19, i32 0, i32 1
  %21 = load i64, ptr %20, align 8, !tbaa !20
  %22 = getelementptr inbounds i8, ptr %18, i64 %21
  br label %27

23:                                               ; preds = %2
  %24 = load ptr, ptr %3, align 8, !tbaa !4
  %25 = getelementptr inbounds nuw %struct.s_mmfile, ptr %24, i32 0, i32 0
  %26 = load ptr, ptr %25, align 8, !tbaa !27
  br label %27

27:                                               ; preds = %23, %15
  %28 = phi ptr [ %22, %15 ], [ %26, %23 ]
  store ptr %28, ptr %8, align 8, !tbaa !16
  call void @llvm.lifetime.start.p0(i64 8, ptr %9) #9
  %29 = load ptr, ptr %4, align 8, !tbaa !4
  %30 = getelementptr inbounds nuw %struct.s_mmfile, ptr %29, i32 0, i32 1
  %31 = load i64, ptr %30, align 8, !tbaa !20
  %32 = icmp ne i64 %31, 0
  br i1 %32, label %33, label %41

33:                                               ; preds = %27
  %34 = load ptr, ptr %4, align 8, !tbaa !4
  %35 = getelementptr inbounds nuw %struct.s_mmfile, ptr %34, i32 0, i32 0
  %36 = load ptr, ptr %35, align 8, !tbaa !27
  %37 = load ptr, ptr %4, align 8, !tbaa !4
  %38 = getelementptr inbounds nuw %struct.s_mmfile, ptr %37, i32 0, i32 1
  %39 = load i64, ptr %38, align 8, !tbaa !20
  %40 = getelementptr inbounds i8, ptr %36, i64 %39
  br label %45

41:                                               ; preds = %27
  %42 = load ptr, ptr %4, align 8, !tbaa !4
  %43 = getelementptr inbounds nuw %struct.s_mmfile, ptr %42, i32 0, i32 0
  %44 = load ptr, ptr %43, align 8, !tbaa !27
  br label %45

45:                                               ; preds = %41, %33
  %46 = phi ptr [ %40, %33 ], [ %44, %41 ]
  store ptr %46, ptr %9, align 8, !tbaa !16
  call void @llvm.lifetime.start.p0(i64 8, ptr %10) #9
  %47 = load ptr, ptr %3, align 8, !tbaa !4
  %48 = getelementptr inbounds nuw %struct.s_mmfile, ptr %47, i32 0, i32 1
  %49 = load i64, ptr %48, align 8, !tbaa !20
  %50 = load ptr, ptr %4, align 8, !tbaa !4
  %51 = getelementptr inbounds nuw %struct.s_mmfile, ptr %50, i32 0, i32 1
  %52 = load i64, ptr %51, align 8, !tbaa !20
  %53 = icmp slt i64 %49, %52
  br i1 %53, label %54, label %58

54:                                               ; preds = %45
  %55 = load ptr, ptr %3, align 8, !tbaa !4
  %56 = getelementptr inbounds nuw %struct.s_mmfile, ptr %55, i32 0, i32 1
  %57 = load i64, ptr %56, align 8, !tbaa !20
  br label %62

58:                                               ; preds = %45
  %59 = load ptr, ptr %4, align 8, !tbaa !4
  %60 = getelementptr inbounds nuw %struct.s_mmfile, ptr %59, i32 0, i32 1
  %61 = load i64, ptr %60, align 8, !tbaa !20
  br label %62

62:                                               ; preds = %58, %54
  %63 = phi i64 [ %57, %54 ], [ %61, %58 ]
  store i64 %63, ptr %10, align 8, !tbaa !18
  br label %64

64:                                               ; preds = %79, %62
  %65 = load i64, ptr %6, align 8, !tbaa !18
  %66 = add nsw i64 1024, %65
  %67 = load i64, ptr %10, align 8, !tbaa !18
  %68 = icmp sle i64 %66, %67
  br i1 %68, label %69, label %77

69:                                               ; preds = %64
  %70 = load ptr, ptr %8, align 8, !tbaa !16
  %71 = getelementptr inbounds i8, ptr %70, i64 -1024
  %72 = load ptr, ptr %9, align 8, !tbaa !16
  %73 = getelementptr inbounds i8, ptr %72, i64 -1024
  %74 = call i32 @memcmp(ptr noundef %71, ptr noundef %73, i64 noundef 1024) #10
  %75 = icmp ne i32 %74, 0
  %76 = xor i1 %75, true
  br label %77

77:                                               ; preds = %69, %64
  %78 = phi i1 [ false, %64 ], [ %76, %69 ]
  br i1 %78, label %79, label %86

79:                                               ; preds = %77
  %80 = load i64, ptr %6, align 8, !tbaa !18
  %81 = add nsw i64 %80, 1024
  store i64 %81, ptr %6, align 8, !tbaa !18
  %82 = load ptr, ptr %8, align 8, !tbaa !16
  %83 = getelementptr inbounds i8, ptr %82, i64 -1024
  store ptr %83, ptr %8, align 8, !tbaa !16
  %84 = load ptr, ptr %9, align 8, !tbaa !16
  %85 = getelementptr inbounds i8, ptr %84, i64 -1024
  store ptr %85, ptr %9, align 8, !tbaa !16
  br label %64, !llvm.loop !28

86:                                               ; preds = %77
  br label %87

87:                                               ; preds = %100, %86
  %88 = load i64, ptr %7, align 8, !tbaa !18
  %89 = load i64, ptr %6, align 8, !tbaa !18
  %90 = icmp slt i64 %88, %89
  br i1 %90, label %91, label %101

91:                                               ; preds = %87
  %92 = load ptr, ptr %8, align 8, !tbaa !16
  %93 = load i64, ptr %7, align 8, !tbaa !18
  %94 = add nsw i64 %93, 1
  store i64 %94, ptr %7, align 8, !tbaa !18
  %95 = getelementptr inbounds i8, ptr %92, i64 %93
  %96 = load i8, ptr %95, align 1, !tbaa !30
  %97 = sext i8 %96 to i32
  %98 = icmp eq i32 %97, 10
  br i1 %98, label %99, label %100

99:                                               ; preds = %91
  br label %101

100:                                              ; preds = %91
  br label %87, !llvm.loop !31

101:                                              ; preds = %99, %87
  %102 = load i64, ptr %6, align 8, !tbaa !18
  %103 = load i64, ptr %7, align 8, !tbaa !18
  %104 = sub nsw i64 %102, %103
  %105 = load ptr, ptr %3, align 8, !tbaa !4
  %106 = getelementptr inbounds nuw %struct.s_mmfile, ptr %105, i32 0, i32 1
  %107 = load i64, ptr %106, align 8, !tbaa !20
  %108 = sub nsw i64 %107, %104
  store i64 %108, ptr %106, align 8, !tbaa !20
  %109 = load i64, ptr %6, align 8, !tbaa !18
  %110 = load i64, ptr %7, align 8, !tbaa !18
  %111 = sub nsw i64 %109, %110
  %112 = load ptr, ptr %4, align 8, !tbaa !4
  %113 = getelementptr inbounds nuw %struct.s_mmfile, ptr %112, i32 0, i32 1
  %114 = load i64, ptr %113, align 8, !tbaa !20
  %115 = sub nsw i64 %114, %111
  store i64 %115, ptr %113, align 8, !tbaa !20
  call void @llvm.lifetime.end.p0(i64 8, ptr %10) #9
  call void @llvm.lifetime.end.p0(i64 8, ptr %9) #9
  call void @llvm.lifetime.end.p0(i64 8, ptr %8) #9
  call void @llvm.lifetime.end.p0(i64 8, ptr %7) #9
  call void @llvm.lifetime.end.p0(i64 8, ptr %6) #9
  call void @llvm.lifetime.end.p0(i64 4, ptr %5) #9
  ret void
}

; Function Attrs: nounwind uwtable
define dso_local i32 @xdi_diff(ptr noundef %0, ptr noundef %1, ptr noundef %2, ptr noundef %3, ptr noundef %4) #0 {
  %6 = alloca i32, align 4
  %7 = alloca ptr, align 8
  %8 = alloca ptr, align 8
  %9 = alloca ptr, align 8
  %10 = alloca ptr, align 8
  %11 = alloca ptr, align 8
  %12 = alloca %struct.s_mmfile, align 8
  %13 = alloca %struct.s_mmfile, align 8
  %14 = alloca i32, align 4
  store ptr %0, ptr %7, align 8, !tbaa !4
  store ptr %1, ptr %8, align 8, !tbaa !4
  store ptr %2, ptr %9, align 8, !tbaa !9
  store ptr %3, ptr %10, align 8, !tbaa !11
  store ptr %4, ptr %11, align 8, !tbaa !13
  call void @llvm.lifetime.start.p0(i64 16, ptr %12) #9
  %15 = load ptr, ptr %7, align 8, !tbaa !4
  call void @llvm.memcpy.p0.p0.i64(ptr align 8 %12, ptr align 8 %15, i64 16, i1 false), !tbaa.struct !15
  call void @llvm.lifetime.start.p0(i64 16, ptr %13) #9
  %16 = load ptr, ptr %8, align 8, !tbaa !4
  call void @llvm.memcpy.p0.p0.i64(ptr align 8 %13, ptr align 8 %16, i64 16, i1 false), !tbaa.struct !15
  %17 = load ptr, ptr %7, align 8, !tbaa !4
  %18 = getelementptr inbounds nuw %struct.s_mmfile, ptr %17, i32 0, i32 1
  %19 = load i64, ptr %18, align 8, !tbaa !20
  %20 = icmp ugt i64 %19, 1072693248
  br i1 %20, label %26, label %21

21:                                               ; preds = %5
  %22 = load ptr, ptr %8, align 8, !tbaa !4
  %23 = getelementptr inbounds nuw %struct.s_mmfile, ptr %22, i32 0, i32 1
  %24 = load i64, ptr %23, align 8, !tbaa !20
  %25 = icmp ugt i64 %24, 1072693248
  br i1 %25, label %26, label %27

26:                                               ; preds = %21, %5
  store i32 -1, ptr %6, align 4
  store i32 1, ptr %14, align 4
  br label %44

27:                                               ; preds = %21
  %28 = load ptr, ptr %10, align 8, !tbaa !11
  %29 = getelementptr inbounds nuw %struct.s_xdemitconf, ptr %28, i32 0, i32 0
  %30 = load i64, ptr %29, align 8, !tbaa !22
  %31 = icmp ne i64 %30, 0
  br i1 %31, label %39, label %32

32:                                               ; preds = %27
  %33 = load ptr, ptr %10, align 8, !tbaa !11
  %34 = getelementptr inbounds nuw %struct.s_xdemitconf, ptr %33, i32 0, i32 2
  %35 = load i64, ptr %34, align 8, !tbaa !24
  %36 = and i64 %35, 4
  %37 = icmp ne i64 %36, 0
  br i1 %37, label %39, label %38

38:                                               ; preds = %32
  call void @trim_common_tail(ptr noundef %12, ptr noundef %13)
  br label %39

39:                                               ; preds = %38, %32, %27
  %40 = load ptr, ptr %9, align 8, !tbaa !9
  %41 = load ptr, ptr %10, align 8, !tbaa !11
  %42 = load ptr, ptr %11, align 8, !tbaa !13
  %43 = call i32 @xdl_diff(ptr noundef %12, ptr noundef %13, ptr noundef %40, ptr noundef %41, ptr noundef %42)
  store i32 %43, ptr %6, align 4
  store i32 1, ptr %14, align 4
  br label %44

44:                                               ; preds = %39, %26
  call void @llvm.lifetime.end.p0(i64 16, ptr %13) #9
  call void @llvm.lifetime.end.p0(i64 16, ptr %12) #9
  %45 = load i32, ptr %6, align 4
  ret i32 %45
}