; Function Attrs: nounwind uwtable
define dso_local i32 @xdi_diff(ptr noundef readonly captures(none) %0, ptr noundef readonly captures(none) %1, ptr noundef %2, ptr noundef %3, ptr noundef %4) local_unnamed_addr #0 {
  %6 = alloca %struct.s_mmfile, align 8
  %7 = alloca %struct.s_mmfile, align 8
  call void @llvm.lifetime.start.p0(i64 16, ptr nonnull %6) #13
  call void @llvm.memcpy.p0.p0.i64(ptr noundef nonnull align 8 dereferenceable(16) %6, ptr noundef nonnull align 8 dereferenceable(16) %0, i64 16, i1 false), !tbaa.struct !4
  call void @llvm.lifetime.start.p0(i64 16, ptr nonnull %7) #13
  call void @llvm.memcpy.p0.p0.i64(ptr noundef nonnull align 8 dereferenceable(16) %7, ptr noundef nonnull align 8 dereferenceable(16) %1, i64 16, i1 false), !tbaa.struct !4
  %8 = getelementptr inbounds nuw i8, ptr %0, i64 8
  %9 = load i64, ptr %8, align 8, !tbaa !12
  %10 = icmp ugt i64 %9, 1072693248
  br i1 %10, label %45, label %11

11:                                               ; preds = %5
  %12 = getelementptr inbounds nuw i8, ptr %1, i64 8
  %13 = load i64, ptr %12, align 8, !tbaa !12
  %14 = icmp ugt i64 %13, 1072693248
  br i1 %14, label %45, label %15

15:                                               ; preds = %11
  %16 = load i64, ptr %3, align 8, !tbaa !14
  %.not = icmp eq i64 %16, 0
  br i1 %.not, label %17, label %43

17:                                               ; preds = %15
  %18 = getelementptr inbounds nuw i8, ptr %3, i64 16
  %19 = load i64, ptr %18, align 8, !tbaa !16
  %20 = and i64 %19, 4
  %.not9 = icmp eq i64 %20, 0
  br i1 %.not9, label %21, label %43

21:                                               ; preds = %17
  %22 = getelementptr inbounds nuw i8, ptr %6, i64 8
  %23 = load i64, ptr %22, align 8, !tbaa !12
  %24 = load ptr, ptr %6, align 8, !tbaa !17
  %25 = getelementptr inbounds i8, ptr %24, i64 %23
  %26 = getelementptr inbounds nuw i8, ptr %7, i64 8
  %27 = load i64, ptr %26, align 8, !tbaa !12
  %28 = load ptr, ptr %7, align 8, !tbaa !17
  %29 = getelementptr inbounds i8, ptr %28, i64 %27
  %..i = tail call i64 @llvm.smin.i64(i64 %23, i64 %27)
  br label %30

30:                                               ; preds = %32, %21
  %.029.i = phi ptr [ %25, %21 ], [ %33, %32 ]
  %.028.i = phi ptr [ %29, %21 ], [ %34, %32 ]
  %.0.i = phi i64 [ 0, %21 ], [ %31, %32 ]
  %31 = add nuw nsw i64 %.0.i, 1024
  %.not37.i = icmp sgt i64 %31, %..i
  br i1 %.not37.i, label %.critedge.i.preheader, label %32

32:                                               ; preds = %30
  %33 = getelementptr inbounds i8, ptr %.029.i, i64 -1024
  %34 = getelementptr inbounds i8, ptr %.028.i, i64 -1024
  %bcmp.i = tail call i32 @bcmp(ptr noundef nonnull dereferenceable(1024) %33, ptr noundef nonnull dereferenceable(1024) %34, i64 1024)
  %.not38.i = icmp eq i32 %bcmp.i, 0
  br i1 %.not38.i, label %30, label %.critedge.i.preheader, !llvm.loop !18

.critedge.i.preheader:                            ; preds = %32, %30
  br label %.critedge.i

.critedge.i:                                      ; preds = %.critedge.i.preheader, %35
  %.030.i = phi i64 [ %36, %35 ], [ 0, %.critedge.i.preheader ]
  %exitcond.not.i = icmp eq i64 %.030.i, %.0.i
  br i1 %exitcond.not.i, label %trim_common_tail.exit, label %35

35:                                               ; preds = %.critedge.i
  %36 = add nuw nsw i64 %.030.i, 1
  %37 = getelementptr inbounds nuw i8, ptr %.029.i, i64 %.030.i
  %38 = load i8, ptr %37, align 1, !tbaa !20
  %39 = icmp eq i8 %38, 10
  br i1 %39, label %trim_common_tail.exit, label %.critedge.i, !llvm.loop !21

trim_common_tail.exit:                            ; preds = %.critedge.i, %35
  %.1.i = phi i64 [ %36, %35 ], [ %.0.i, %.critedge.i ]
  %40 = sub nsw i64 %.0.i, %.1.i
  %41 = sub nsw i64 %23, %40
  store i64 %41, ptr %22, align 8, !tbaa !12
  %42 = sub nsw i64 %27, %40
  store i64 %42, ptr %26, align 8, !tbaa !12
  br label %43

43:                                               ; preds = %trim_common_tail.exit, %17, %15
  %44 = call i32 @xdl_diff(ptr noundef nonnull %6, ptr noundef nonnull %7, ptr noundef %2, ptr noundef nonnull %3, ptr noundef %4) #13
  br label %45

45:                                               ; preds = %5, %11, %43
  %.0 = phi i32 [ %44, %43 ], [ -1, %11 ], [ -1, %5 ]
  call void @llvm.lifetime.end.p0(i64 16, ptr nonnull %7) #13
  call void @llvm.lifetime.end.p0(i64 16, ptr nonnull %6) #13
  ret i32 %.0
}